target datalayout = "e-m:e-p270:32:32-p271:32:32-p272:64:64-i64:64-i128:128-f80:128-n8:16:32:64-S128"
target triple = "x86_64-pc-linux-gnu"

%struct.Exid_s = type { %struct._dtlink_s, i64, i64, i64, i64, i64, ptr, ptr, i64, [32 x i8] }
%struct._dtlink_s = type { ptr, %union.anon.0 }
%union.anon.0 = type { ptr }

@.str.71 = private unnamed_addr constant [31 x i8] c"Variable \22%s\22 already declared\00", align 1
@.str.72 = private unnamed_addr constant [37 x i8] c"Name \22%s\22 already used as a function\00", align 1
@.str.73 = private unnamed_addr constant [36 x i8] c"Name \22%s\22 already used as a keyword\00", align 1
@.str.74 = private unnamed_addr constant [42 x i8] c"Unexpected token \22%s\22 as name in dcl_item\00", align 1

; Function Attrs: nounwind uwtable
define internal void @checkName(ptr noundef %0) #0 {
  %2 = alloca ptr, align 8
  store ptr %0, ptr %2, align 8
  %3 = load ptr, ptr %2, align 8
  %4 = getelementptr inbounds %struct.Exid_s, ptr %3, i32 0, i32 1
  %5 = load i64, ptr %4, align 8
  switch i64 %5, label %19 [
    i64 275, label %6
    i64 279, label %10
    i64 283, label %14
    i64 287, label %18
  ]

6:                                                ; preds = %1
  %7 = load ptr, ptr %2, align 8
  %8 = getelementptr inbounds %struct.Exid_s, ptr %7, i32 0, i32 9
  %9 = getelementptr inbounds [32 x i8], ptr %8, i64 0, i64 0
  call void (ptr, ...) @exerror(ptr noundef @.str.71, ptr noundef %9)
  br label %23

10:                                               ; preds = %1
  %11 = load ptr, ptr %2, align 8
  %12 = getelementptr inbounds %struct.Exid_s, ptr %11, i32 0, i32 9
  %13 = getelementptr inbounds [32 x i8], ptr %12, i64 0, i64 0
  call void (ptr, ...) @exerror(ptr noundef @.str.72, ptr noundef %13)
  br label %23

14:                                               ; preds = %1
  %15 = load ptr, ptr %2, align 8
  %16 = getelementptr inbounds %struct.Exid_s, ptr %15, i32 0, i32 9
  %17 = getelementptr inbounds [32 x i8], ptr %16, i64 0, i64 0
  call void (ptr, ...) @exerror(ptr noundef @.str.73, ptr noundef %17)
  br label %23

18:                                               ; preds = %1
  br label %23

19:                                               ; preds = %1
  %20 = load ptr, ptr %2, align 8
  %21 = getelementptr inbounds %struct.Exid_s, ptr %20, i32 0, i32 9
  %22 = getelementptr inbounds [32 x i8], ptr %21, i64 0, i64 0
  call void (i32, ptr, ...) @_err_msg(i32 noundef 255, ptr noundef @.str.74, ptr noundef %22)
  br label %23

23:                                               ; preds = %19, %18, %14, %10, %6
  ret void
}