; Function Attrs: nounwind uwtable
define internal fastcc void @checkName(ptr noundef %0) unnamed_addr #0 {
  %2 = getelementptr inbounds nuw i8, ptr %0, i64 16
  %3 = load i64, ptr %2, align 8
  %4 = add i64 %3, -275
  %5 = tail call i64 @llvm.fshl.i64(i64 %4, i64 %4, i64 62)
  switch i64 %5, label %12 [
    i64 0, label %6
    i64 1, label %8
    i64 2, label %10
    i64 3, label %14
  ]

6:                                                ; preds = %1
  %7 = getelementptr inbounds nuw i8, ptr %0, i64 80
  tail call void (ptr, ...) @exerror(ptr noundef nonnull @.str.71, ptr noundef nonnull %7) #22
  br label %14

8:                                                ; preds = %1
  %9 = getelementptr inbounds nuw i8, ptr %0, i64 80
  tail call void (ptr, ...) @exerror(ptr noundef nonnull @.str.72, ptr noundef nonnull %9) #22
  br label %14

10:                                               ; preds = %1
  %11 = getelementptr inbounds nuw i8, ptr %0, i64 80
  tail call void (ptr, ...) @exerror(ptr noundef nonnull @.str.73, ptr noundef nonnull %11) #22
  br label %14

12:                                               ; preds = %1
  %13 = getelementptr inbounds nuw i8, ptr %0, i64 80
  tail call void (i32, ptr, ...) @_err_msg(i32 noundef 255, ptr noundef nonnull @.str.74, ptr noundef nonnull %13) #22
  br label %14

14:                                               ; preds = %1, %12, %10, %8, %6
  ret void
}